; ModuleID = '15/2018.c'
source_filename = "15/2018.c"
target datalayout = "e-m:e-p270:32:32-p271:32:32-p272:64:64-i64:64-f80:128-n8:16:32:64-S128"
target triple = "x86_64-pc-linux-gnu"

@.str = private unnamed_addr constant [3 x i8] c"%d\00", align 1

; Function Attrs: noinline nounwind uwtable
define dso_local i32 @main() #0 {
  %1 = alloca i32, align 4
  %2 = alloca i32, align 4
  %3 = alloca [100 x [100 x i32]], align 16
  %4 = alloca i32, align 4
  %5 = alloca i32, align 4
  %6 = alloca i32, align 4
  %7 = alloca i32, align 4
  %8 = alloca i32, align 4
  %9 = alloca i32, align 4
  %10 = alloca i32, align 4
  %11 = alloca i32, align 4
  store i32 0, i32* %1, align 4
  %12 = call i32 (i8*, ...) @__isoc99_scanf(i8* getelementptr inbounds ([3 x i8], [3 x i8]* @.str, i64 0, i64 0), i32* %2)
  store i32 0, i32* %4, align 4
  br label %13

13:                                               ; preds = %34, %0
  %14 = load i32, i32* %4, align 4
  %15 = load i32, i32* %2, align 4
  %16 = icmp slt i32 %14, %15
  br i1 %16, label %17, label %37

17:                                               ; preds = %13
  store i32 0, i32* %5, align 4
  br label %18

18:                                               ; preds = %30, %17
  %19 = load i32, i32* %5, align 4
  %20 = load i32, i32* %2, align 4
  %21 = icmp slt i32 %19, %20
  br i1 %21, label %22, label %33

22:                                               ; preds = %18
  %23 = load i32, i32* %4, align 4
  %24 = sext i32 %23 to i64
  %25 = getelementptr inbounds [100 x [100 x i32]], [100 x [100 x i32]]* %3, i64 0, i64 %24
  %26 = load i32, i32* %5, align 4
  %27 = sext i32 %26 to i64
  %28 = getelementptr inbounds [100 x i32], [100 x i32]* %25, i64 0, i64 %27
  %29 = call i32 (i8*, ...) @__isoc99_scanf(i8* getelementptr inbounds ([3 x i8], [3 x i8]* @.str, i64 0, i64 0), i32* %28)
  br label %30

30:                                               ; preds = %22
  %31 = load i32, i32* %5, align 4
  %32 = add nsw i32 %31, 1
  store i32 %32, i32* %5, align 4
  br label %18

33:                                               ; preds = %18
  br label %34

34:                                               ; preds = %33
  %35 = load i32, i32* %4, align 4
  %36 = add nsw i32 %35, 1
  store i32 %36, i32* %4, align 4
  br label %13

37:                                               ; preds = %13
  store i32 0, i32* %4, align 4
  br label %38

38:                                               ; preds = %88, %37
  %39 = load i32, i32* %4, align 4
  %40 = load i32, i32* %2, align 4
  %41 = icmp slt i32 %39, %40
  br i1 %41, label %42, label %91

42:                                               ; preds = %38
  store i32 0, i32* %11, align 4
  store i32 0, i32* %5, align 4
  br label %43

43:                                               ; preds = %80, %42
  %44 = load i32, i32* %5, align 4
  %45 = load i32, i32* %2, align 4
  %46 = icmp slt i32 %44, %45
  br i1 %46, label %47, label %83

47:                                               ; preds = %43
  %48 = load i32, i32* %4, align 4
  %49 = sext i32 %48 to i64
  %50 = getelementptr inbounds [100 x [100 x i32]], [100 x [100 x i32]]* %3, i64 0, i64 %49
  %51 = load i32, i32* %5, align 4
  %52 = sext i32 %51 to i64
  %53 = getelementptr inbounds [100 x i32], [100 x i32]* %50, i64 0, i64 %52
  %54 = load i32, i32* %53, align 4
  %55 = icmp eq i32 %54, 0
  br i1 %55, label %56, label %79

56:                                               ; preds = %47
  %57 = load i32, i32* %4, align 4
  %58 = sext i32 %57 to i64
  %59 = getelementptr inbounds [100 x [100 x i32]], [100 x [100 x i32]]* %3, i64 0, i64 %58
  %60 = load i32, i32* %5, align 4
  %61 = sub nsw i32 %60, 1
  %62 = sext i32 %61 to i64
  %63 = getelementptr inbounds [100 x i32], [100 x i32]* %59, i64 0, i64 %62
  %64 = load i32, i32* %63, align 4
  %65 = icmp ne i32 %64, 0
  br i1 %65, label %66, label %79

66:                                               ; preds = %56
  %67 = load i32, i32* %4, align 4
  %68 = sub nsw i32 %67, 1
  %69 = sext i32 %68 to i64
  %70 = getelementptr inbounds [100 x [100 x i32]], [100 x [100 x i32]]* %3, i64 0, i64 %69
  %71 = load i32, i32* %5, align 4
  %72 = sext i32 %71 to i64
  %73 = getelementptr inbounds [100 x i32], [100 x i32]* %70, i64 0, i64 %72
  %74 = load i32, i32* %73, align 4
  %75 = icmp ne i32 %74, 0
  br i1 %75, label %76, label %79

76:                                               ; preds = %66
  %77 = load i32, i32* %4, align 4
  store i32 %77, i32* %6, align 4
  %78 = load i32, i32* %5, align 4
  store i32 %78, i32* %7, align 4
  store i32 1, i32* %11, align 4
  br label %83

79:                                               ; preds = %66, %56, %47
  br label %80

80:                                               ; preds = %79
  %81 = load i32, i32* %5, align 4
  %82 = add nsw i32 %81, 1
  store i32 %82, i32* %5, align 4
  br label %43

83:                                               ; preds = %76, %43
  %84 = load i32, i32* %11, align 4
  %85 = icmp eq i32 %84, 1
  br i1 %85, label %86, label %87

86:                                               ; preds = %83
  br label %91

87:                                               ; preds = %83
  br label %88

88:                                               ; preds = %87
  %89 = load i32, i32* %4, align 4
  %90 = add nsw i32 %89, 1
  store i32 %90, i32* %4, align 4
  br label %38

91:                                               ; preds = %86, %38
  %92 = load i32, i32* %2, align 4
  %93 = sub nsw i32 %92, 1
  store i32 %93, i32* %4, align 4
  br label %94

94:                                               ; preds = %144, %91
  %95 = load i32, i32* %4, align 4
  %96 = icmp sge i32 %95, 0
  br i1 %96, label %97, label %147

97:                                               ; preds = %94
  %98 = load i32, i32* %2, align 4
  %99 = sub nsw i32 %98, 1
  store i32 %99, i32* %5, align 4
  br label %100

100:                                              ; preds = %136, %97
  %101 = load i32, i32* %5, align 4
  %102 = icmp sge i32 %101, 0
  br i1 %102, label %103, label %139

103:                                              ; preds = %100
  %104 = load i32, i32* %4, align 4
  %105 = sext i32 %104 to i64
  %106 = getelementptr inbounds [100 x [100 x i32]], [100 x [100 x i32]]* %3, i64 0, i64 %105
  %107 = load i32, i32* %5, align 4
  %108 = sext i32 %107 to i64
  %109 = getelementptr inbounds [100 x i32], [100 x i32]* %106, i64 0, i64 %108
  %110 = load i32, i32* %109, align 4
  %111 = icmp eq i32 %110, 0
  br i1 %111, label %112, label %135

112:                                              ; preds = %103
  %113 = load i32, i32* %4, align 4
  %114 = add nsw i32 %113, 1
  %115 = sext i32 %114 to i64
  %116 = getelementptr inbounds [100 x [100 x i32]], [100 x [100 x i32]]* %3, i64 0, i64 %115
  %117 = load i32, i32* %5, align 4
  %118 = sext i32 %117 to i64
  %119 = getelementptr inbounds [100 x i32], [100 x i32]* %116, i64 0, i64 %118
  %120 = load i32, i32* %119, align 4
  %121 = icmp ne i32 %120, 0
  br i1 %121, label %122, label %135

122:                                              ; preds = %112
  %123 = load i32, i32* %4, align 4
  %124 = sext i32 %123 to i64
  %125 = getelementptr inbounds [100 x [100 x i32]], [100 x [100 x i32]]* %3, i64 0, i64 %124
  %126 = load i32, i32* %5, align 4
  %127 = add nsw i32 %126, 1
  %128 = sext i32 %127 to i64
  %129 = getelementptr inbounds [100 x i32], [100 x i32]* %125, i64 0, i64 %128
  %130 = load i32, i32* %129, align 4
  %131 = icmp ne i32 %130, 0
  br i1 %131, label %132, label %135

132:                                              ; preds = %122
  %133 = load i32, i32* %4, align 4
  store i32 %133, i32* %8, align 4
  %134 = load i32, i32* %5, align 4
  store i32 %134, i32* %9, align 4
  store i32 2, i32* %11, align 4
  br label %139

135:                                              ; preds = %122, %112, %103
  br label %136

136:                                              ; preds = %135
  %137 = load i32, i32* %5, align 4
  %138 = add nsw i32 %137, -1
  store i32 %138, i32* %5, align 4
  br label %100

139:                                              ; preds = %132, %100
  %140 = load i32, i32* %11, align 4
  %141 = icmp eq i32 %140, 2
  br i1 %141, label %142, label %143

142:                                              ; preds = %139
  br label %147

143:                                              ; preds = %139
  br label %144

144:                                              ; preds = %143
  %145 = load i32, i32* %4, align 4
  %146 = add nsw i32 %145, -1
  store i32 %146, i32* %4, align 4
  br label %94

147:                                              ; preds = %142, %94
  %148 = load i32, i32* %8, align 4
  %149 = load i32, i32* %6, align 4
  %150 = sub nsw i32 %148, %149
  %151 = sub nsw i32 %150, 1
  %152 = load i32, i32* %9, align 4
  %153 = load i32, i32* %7, align 4
  %154 = sub nsw i32 %152, %153
  %155 = sub nsw i32 %154, 1
  %156 = mul nsw i32 %151, %155
  store i32 %156, i32* %10, align 4
  %157 = load i32, i32* %10, align 4
  %158 = call i32 (i8*, ...) @printf(i8* getelementptr inbounds ([3 x i8], [3 x i8]* @.str, i64 0, i64 0), i32 %157)
  ret i32 0
}

declare dso_local i32 @__isoc99_scanf(i8*, ...) #1

declare dso_local i32 @printf(i8*, ...) #1


!llvm.module.flags = !{!0}
!llvm.ident = !{!1}

!0 = !{i32 1, !"wchar_size", i32 4}
!1 = !{!"clang version 10.0.0-4ubuntu1 "}
